; Function Attrs: mustprogress nofree norecurse nosync nounwind memory(argmem: readwrite) uwtable
define internal void @_ZN2cv4gapi12_GLOBAL__N_122fillBorderReplicateRowItEEvPhiii(ptr noundef captures(none) %0, i32 noundef %1, i32 noundef %2, i32 noundef %3) #19 {
  %5 = sub nsw i32 %1, %3
  %6 = mul nsw i32 %5, %2
  %7 = sext i32 %6 to i64
  %8 = getelementptr inbounds i16, ptr %0, i64 %7
  %9 = icmp sgt i32 %3, 0
  %10 = icmp sgt i32 %2, 0
  %or.cond = and i1 %9, %10
  br i1 %or.cond, label %.preheader.us.preheader, label %._crit_edge30

.preheader.us.preheader:                          ; preds = %4
  %11 = mul nuw nsw i32 %3, %2
  %12 = zext nneg i32 %11 to i64
  %13 = zext nneg i32 %2 to i64
  %wide.trip.count36 = zext nneg i32 %3 to i64
  %wide.trip.count = zext nneg i32 %2 to i64
  %invariant.gep = getelementptr inbounds nuw i16, ptr %0, i64 %12
  br label %.preheader.us

.preheader.us:                                    ; preds = %.preheader.us.preheader, %._crit_edge.us
  %indvars.iv33 = phi i64 [ 0, %.preheader.us.preheader ], [ %indvars.iv.next34, %._crit_edge.us ]
  %14 = mul nuw nsw i64 %indvars.iv33, %13
  br label %15

15:                                               ; preds = %.preheader.us, %15
  %indvars.iv = phi i64 [ 0, %.preheader.us ], [ %indvars.iv.next, %15 ]
  %gep = getelementptr inbounds nuw i16, ptr %invariant.gep, i64 %indvars.iv
  %16 = load i16, ptr %gep, align 2, !tbaa !207
  %17 = add nuw nsw i64 %indvars.iv, %14
  %18 = getelementptr inbounds nuw i16, ptr %0, i64 %17
  store i16 %16, ptr %18, align 2, !tbaa !207
  %19 = sub nsw i64 %indvars.iv, %13
  %20 = getelementptr inbounds i16, ptr %8, i64 %19
  %21 = load i16, ptr %20, align 2, !tbaa !207
  %22 = getelementptr inbounds nuw i16, ptr %8, i64 %17
  store i16 %21, ptr %22, align 2, !tbaa !207
  %indvars.iv.next = add nuw nsw i64 %indvars.iv, 1
  %exitcond.not = icmp eq i64 %indvars.iv.next, %wide.trip.count
  br i1 %exitcond.not, label %._crit_edge.us, label %15, !llvm.loop !226

._crit_edge.us:                                   ; preds = %15
  %indvars.iv.next34 = add nuw nsw i64 %indvars.iv33, 1
  %exitcond37.not = icmp eq i64 %indvars.iv.next34, %wide.trip.count36
  br i1 %exitcond37.not, label %._crit_edge30, label %.preheader.us, !llvm.loop !227

._crit_edge30:                                    ; preds = %._crit_edge.us, %4
  ret void
}